target datalayout = "e-m:e-p270:32:32-p271:32:32-p272:64:64-i64:64-i128:128-f80:128-n8:16:32:64-S128"
target triple = "x86_64-pc-linux-gnu"

@.str.8 = private unnamed_addr constant [10 x i8] c"yosys.exe\00", align 1
@.str.9 = private unnamed_addr constant [6 x i8] c"yosys\00", align 1
@.str.10 = private unnamed_addr constant [9 x i8] c"yosyswin\00", align 1
@.str.11 = private unnamed_addr constant [10 x i8] c"yosysunix\00", align 1

; Function Attrs: nounwind uwtable
define ptr @Wln_GetYosysName() #0 {
  %1 = alloca ptr, align 8
  %2 = alloca ptr, align 8
  %3 = alloca ptr, align 8
  call void @llvm.lifetime.start.p0(i64 8, ptr %1) #7
  store ptr null, ptr %1, align 8, !tbaa !3
  call void @llvm.lifetime.start.p0(i64 8, ptr %2) #7
  store ptr @.str.8, ptr %2, align 8, !tbaa !3
  call void @llvm.lifetime.start.p0(i64 8, ptr %3) #7
  store ptr @.str.9, ptr %3, align 8, !tbaa !3
  %4 = call ptr @Abc_FrameReadFlag(ptr noundef @.str.10)
  %5 = icmp ne ptr %4, null
  br i1 %5, label %6, label %8

6:                                                ; preds = %0
  %7 = call ptr @Abc_FrameReadFlag(ptr noundef @.str.10)
  store ptr %7, ptr %2, align 8, !tbaa !3
  br label %8

8:                                                ; preds = %6, %0
  %9 = call ptr @Abc_FrameReadFlag(ptr noundef @.str.11)
  %10 = icmp ne ptr %9, null
  br i1 %10, label %11, label %13

11:                                               ; preds = %8
  %12 = call ptr @Abc_FrameReadFlag(ptr noundef @.str.11)
  store ptr %12, ptr %3, align 8, !tbaa !3
  br label %13

13:                                               ; preds = %11, %8
  %14 = load ptr, ptr %3, align 8, !tbaa !3
  store ptr %14, ptr %1, align 8, !tbaa !3
  %15 = load ptr, ptr %1, align 8, !tbaa !3
  call void @llvm.lifetime.end.p0(i64 8, ptr %3) #7
  call void @llvm.lifetime.end.p0(i64 8, ptr %2) #7
  call void @llvm.lifetime.end.p0(i64 8, ptr %1) #7
  ret ptr %15
}