; Function Attrs: nounwind uwtable
define ptr @Wln_GetYosysName() local_unnamed_addr #0 {
  %1 = tail call ptr @Abc_FrameReadFlag(ptr noundef nonnull @.str.10) #13
  %.not = icmp eq ptr %1, null
  br i1 %.not, label %4, label %2

2:                                                ; preds = %0
  %3 = tail call ptr @Abc_FrameReadFlag(ptr noundef nonnull @.str.10) #13
  br label %4

4:                                                ; preds = %2, %0
  %5 = tail call ptr @Abc_FrameReadFlag(ptr noundef nonnull @.str.11) #13
  %.not2 = icmp eq ptr %5, null
  br i1 %.not2, label %8, label %6

6:                                                ; preds = %4
  %7 = tail call ptr @Abc_FrameReadFlag(ptr noundef nonnull @.str.11) #13
  br label %8

8:                                                ; preds = %6, %4
  %.0 = phi ptr [ %7, %6 ], [ @.str.9, %4 ]
  ret ptr %.0
}